; Function Attrs: nounwind uwtable
define dso_local range(i32 -201, 1) i32 @onig_reduce_nested_quantifier(ptr noundef captures(none) %0) local_unnamed_addr #2 {
  %2 = getelementptr inbounds nuw i8, ptr %0, i64 16
  %3 = load ptr, ptr %2, align 8, !tbaa !10
  %4 = getelementptr inbounds nuw i8, ptr %0, i64 32
  %5 = load i32, ptr %4, align 8, !tbaa !119
  %.not.i = icmp eq i32 %5, 0
  %6 = getelementptr inbounds nuw i8, ptr %0, i64 24
  %7 = load i32, ptr %6, align 8, !tbaa !121
  br i1 %.not.i, label %16, label %8

8:                                                ; preds = %1
  switch i32 %7, label %24 [
    i32 0, label %9
    i32 1, label %12
  ]

9:                                                ; preds = %8
  %10 = getelementptr inbounds nuw i8, ptr %0, i64 28
  %11 = load i32, ptr %10, align 4, !tbaa !122
  %switch.selectcmp.i = icmp eq i32 %11, -1
  %switch.select.i = select i1 %switch.selectcmp.i, i32 1, i32 -1
  %switch.selectcmp15.i = icmp eq i32 %11, 1
  %switch.select16.i = select i1 %switch.selectcmp15.i, i32 0, i32 %switch.select.i
  br label %quantifier_type_num.exit

12:                                               ; preds = %8
  %13 = getelementptr inbounds nuw i8, ptr %0, i64 28
  %14 = load i32, ptr %13, align 4, !tbaa !122
  %15 = icmp eq i32 %14, -1
  br i1 %15, label %quantifier_type_num.exit, label %24

16:                                               ; preds = %1
  switch i32 %7, label %24 [
    i32 0, label %17
    i32 1, label %20
  ]

17:                                               ; preds = %16
  %18 = getelementptr inbounds nuw i8, ptr %0, i64 28
  %19 = load i32, ptr %18, align 4, !tbaa !122
  %switch.selectcmp17.i = icmp eq i32 %19, -1
  %switch.select18.i = select i1 %switch.selectcmp17.i, i32 4, i32 -1
  %switch.selectcmp19.i = icmp eq i32 %19, 1
  %switch.select20.i = select i1 %switch.selectcmp19.i, i32 3, i32 %switch.select18.i
  br label %quantifier_type_num.exit

20:                                               ; preds = %16
  %21 = getelementptr inbounds nuw i8, ptr %0, i64 28
  %22 = load i32, ptr %21, align 4, !tbaa !122
  %23 = icmp eq i32 %22, -1
  br i1 %23, label %quantifier_type_num.exit, label %24

24:                                               ; preds = %20, %16, %12, %8
  br label %quantifier_type_num.exit

quantifier_type_num.exit:                         ; preds = %9, %12, %17, %20, %24
  %.0.i = phi i32 [ -1, %24 ], [ 2, %12 ], [ 5, %20 ], [ %switch.select16.i, %9 ], [ %switch.select20.i, %17 ]
  %25 = getelementptr inbounds nuw i8, ptr %3, i64 32
  %26 = load i32, ptr %25, align 8, !tbaa !119
  %.not.i59 = icmp eq i32 %26, 0
  %27 = getelementptr inbounds nuw i8, ptr %3, i64 24
  %28 = load i32, ptr %27, align 8, !tbaa !121
  br i1 %.not.i59, label %34, label %29

29:                                               ; preds = %quantifier_type_num.exit
  switch i32 %28, label %quantifier_type_num.exit69.thread [
    i32 0, label %quantifier_type_num.exit69.sink.split
    i32 1, label %30
  ]

30:                                               ; preds = %29
  %31 = getelementptr inbounds nuw i8, ptr %3, i64 28
  %32 = load i32, ptr %31, align 4, !tbaa !122
  %33 = icmp eq i32 %32, -1
  br i1 %33, label %quantifier_type_num.exit69, label %quantifier_type_num.exit69.thread

34:                                               ; preds = %quantifier_type_num.exit
  switch i32 %28, label %quantifier_type_num.exit69.thread [
    i32 0, label %quantifier_type_num.exit69.sink.split
    i32 1, label %35
  ]

35:                                               ; preds = %34
  %36 = getelementptr inbounds nuw i8, ptr %3, i64 28
  %37 = load i32, ptr %36, align 4, !tbaa !122
  %38 = icmp eq i32 %37, -1
  br i1 %38, label %quantifier_type_num.exit69, label %quantifier_type_num.exit69.thread

quantifier_type_num.exit69.sink.split:            ; preds = %34, %29
  %.sink73 = phi i32 [ 1, %29 ], [ 4, %34 ]
  %.sink = phi i32 [ %28, %29 ], [ 3, %34 ]
  %39 = getelementptr inbounds nuw i8, ptr %3, i64 28
  %40 = load i32, ptr %39, align 4, !tbaa !122
  %switch.selectcmp.i61 = icmp eq i32 %40, -1
  %switch.select.i62 = select i1 %switch.selectcmp.i61, i32 %.sink73, i32 -1
  %switch.selectcmp15.i63 = icmp eq i32 %40, 1
  %switch.select16.i64 = select i1 %switch.selectcmp15.i63, i32 %.sink, i32 %switch.select.i62
  br label %quantifier_type_num.exit69

quantifier_type_num.exit69:                       ; preds = %quantifier_type_num.exit69.sink.split, %30, %35
  %.0.i60 = phi i32 [ 2, %30 ], [ 5, %35 ], [ %switch.select16.i64, %quantifier_type_num.exit69.sink.split ]
  %41 = icmp slt i32 %.0.i, 0
  %42 = icmp slt i32 %.0.i60, 0
  %or.cond = select i1 %41, i1 true, i1 %42
  br i1 %or.cond, label %quantifier_type_num.exit69.thread, label %56

quantifier_type_num.exit69.thread:                ; preds = %35, %34, %30, %29, %quantifier_type_num.exit69
  %43 = getelementptr inbounds nuw i8, ptr %0, i64 28
  %44 = load i32, ptr %43, align 4, !tbaa !122
  %45 = icmp eq i32 %7, %44
  br i1 %45, label %46, label %.critedge

46:                                               ; preds = %quantifier_type_num.exit69.thread
  %47 = getelementptr inbounds nuw i8, ptr %3, i64 28
  %48 = load i32, ptr %47, align 4, !tbaa !122
  %49 = icmp eq i32 %28, %48
  br i1 %49, label %50, label %.critedge

50:                                               ; preds = %46
  %51 = tail call i32 @onig_positive_int_multiply(i32 noundef %7, i32 noundef %28) #25
  %52 = icmp sgt i32 %51, -1
  br i1 %52, label %53, label %.critedge

53:                                               ; preds = %50
  store i32 %51, ptr %43, align 4, !tbaa !122
  store i32 %51, ptr %6, align 8, !tbaa !121
  %54 = getelementptr inbounds nuw i8, ptr %3, i64 16
  %55 = load ptr, ptr %54, align 8, !tbaa !10
  store ptr %55, ptr %2, align 8, !tbaa !10
  br label %onig_node_free.exit

56:                                               ; preds = %quantifier_type_num.exit69
  %57 = zext nneg i32 %.0.i60 to i64
  %58 = zext nneg i32 %.0.i to i64
  %59 = getelementptr inbounds nuw [6 x [6 x i32]], ptr @ReduceTypeTable, i64 0, i64 %57, i64 %58
  %60 = load i32, ptr %59, align 4, !tbaa !8
  switch i32 %60, label %.critedge [
    i32 1, label %61
    i32 2, label %62
    i32 3, label %66
    i32 4, label %70
    i32 5, label %74
    i32 6, label %78
  ]

61:                                               ; preds = %56
  tail call void @llvm.memcpy.p0.p0.i64(ptr noundef nonnull align 8 dereferenceable(72) %0, ptr noundef nonnull align 8 dereferenceable(72) %3, i64 72, i1 false), !tbaa.struct !123
  br label %onig_node_free.exit

62:                                               ; preds = %56
  %63 = getelementptr inbounds nuw i8, ptr %3, i64 16
  %64 = load ptr, ptr %63, align 8, !tbaa !10
  store ptr %64, ptr %2, align 8, !tbaa !10
  store i32 0, ptr %6, align 8, !tbaa !121
  %65 = getelementptr inbounds nuw i8, ptr %0, i64 28
  store i32 -1, ptr %65, align 4, !tbaa !122
  store i32 1, ptr %4, align 8, !tbaa !119
  br label %onig_node_free.exit

66:                                               ; preds = %56
  %67 = getelementptr inbounds nuw i8, ptr %3, i64 16
  %68 = load ptr, ptr %67, align 8, !tbaa !10
  store ptr %68, ptr %2, align 8, !tbaa !10
  store i32 1, ptr %6, align 8, !tbaa !121
  %69 = getelementptr inbounds nuw i8, ptr %0, i64 28
  store i32 -1, ptr %69, align 4, !tbaa !122
  store i32 1, ptr %4, align 8, !tbaa !119
  br label %onig_node_free.exit

70:                                               ; preds = %56
  %71 = getelementptr inbounds nuw i8, ptr %3, i64 16
  %72 = load ptr, ptr %71, align 8, !tbaa !10
  store ptr %72, ptr %2, align 8, !tbaa !10
  store i32 0, ptr %6, align 8, !tbaa !121
  %73 = getelementptr inbounds nuw i8, ptr %0, i64 28
  store i32 -1, ptr %73, align 4, !tbaa !122
  store i32 0, ptr %4, align 8, !tbaa !119
  br label %onig_node_free.exit

74:                                               ; preds = %56
  %75 = getelementptr inbounds nuw i8, ptr %3, i64 16
  %76 = load ptr, ptr %75, align 8, !tbaa !10
  store ptr %76, ptr %2, align 8, !tbaa !10
  store i32 0, ptr %6, align 8, !tbaa !121
  %77 = getelementptr inbounds nuw i8, ptr %0, i64 28
  store i32 1, ptr %77, align 4, !tbaa !122
  store i32 0, ptr %4, align 8, !tbaa !119
  br label %onig_node_free.exit

78:                                               ; preds = %56
  store i32 0, ptr %6, align 8, !tbaa !121
  %79 = getelementptr inbounds nuw i8, ptr %0, i64 28
  store i32 1, ptr %79, align 4, !tbaa !122
  store i32 0, ptr %4, align 8, !tbaa !119
  store i32 1, ptr %27, align 8, !tbaa !121
  %80 = getelementptr inbounds nuw i8, ptr %3, i64 28
  store i32 -1, ptr %80, align 4, !tbaa !122
  store i32 1, ptr %25, align 8, !tbaa !119
  br label %.critedge

onig_node_free.exit:                              ; preds = %53, %74, %70, %66, %62, %61
  %81 = getelementptr inbounds nuw i8, ptr %3, i64 16
  store ptr null, ptr %81, align 8, !tbaa !10
  tail call fastcc void @node_free_body(ptr noundef nonnull %3)
  tail call void @free(ptr noundef nonnull %3) #25
  br label %.critedge

.critedge:                                        ; preds = %50, %56, %78, %quantifier_type_num.exit69.thread, %46, %onig_node_free.exit
  %.1 = phi i32 [ 0, %onig_node_free.exit ], [ 0, %46 ], [ 0, %quantifier_type_num.exit69.thread ], [ 0, %78 ], [ 0, %56 ], [ -201, %50 ]
  ret i32 %.1
}